target datalayout = "e-m:e-p270:32:32-p271:32:32-p272:64:64-i64:64-i128:128-f80:128-n8:16:32:64-S128"
target triple = "x86_64-pc-linux-gnu"

%struct._CharList = type { ptr, ptr }

@.str = private unnamed_addr constant [2 x i8] c"\22\00", align 1
@stderr = external global ptr, align 8
@.str.1 = private unnamed_addr constant [64 x i8] c"%s:%d: Internal error, line too long (greater than 1023 chars)\0A\00", align 1
@.str.2 = private unnamed_addr constant [11 x i8] c"pkgtypes.c\00", align 1

; Function Attrs: nounwind uwtable
define dso_local ptr @pkg_writeCharList(ptr noundef %0, ptr noundef %1, ptr noundef %2, i32 noundef %3) #0 {
  %5 = alloca ptr, align 8
  %6 = alloca ptr, align 8
  %7 = alloca ptr, align 8
  %8 = alloca i32, align 4
  %9 = alloca [1024 x i8], align 16
  store ptr %0, ptr %5, align 8, !tbaa !4
  store ptr %1, ptr %6, align 8, !tbaa !9
  store ptr %2, ptr %7, align 8, !tbaa !11
  store i32 %3, ptr %8, align 4, !tbaa !13
  call void @llvm.lifetime.start.p0(i64 1024, ptr %9) #7
  br label %10

10:                                               ; preds = %119, %4
  %11 = load ptr, ptr %6, align 8, !tbaa !9
  %12 = icmp ne ptr %11, null
  br i1 %12, label %13, label %123

13:                                               ; preds = %10
  %14 = load ptr, ptr %6, align 8, !tbaa !9
  %15 = getelementptr inbounds nuw %struct._CharList, ptr %14, i32 0, i32 0
  %16 = load ptr, ptr %15, align 8, !tbaa !15
  %17 = icmp ne ptr %16, null
  br i1 %17, label %18, label %104

18:                                               ; preds = %13
  %19 = getelementptr inbounds [1024 x i8], ptr %9, i64 0, i64 0
  %20 = load ptr, ptr %6, align 8, !tbaa !9
  %21 = getelementptr inbounds nuw %struct._CharList, ptr %20, i32 0, i32 0
  %22 = load ptr, ptr %21, align 8, !tbaa !15
  %23 = call ptr @strncpy(ptr noundef %19, ptr noundef %22, i64 noundef 1023) #7
  %24 = getelementptr inbounds [1024 x i8], ptr %9, i64 0, i64 1023
  store i8 0, ptr %24, align 1, !tbaa !17
  %25 = load ptr, ptr %6, align 8, !tbaa !9
  %26 = getelementptr inbounds nuw %struct._CharList, ptr %25, i32 0, i32 0
  %27 = load ptr, ptr %26, align 8, !tbaa !15
  %28 = call i64 @strlen(ptr noundef %27) #8
  %29 = icmp uge i64 %28, 1023
  br i1 %29, label %30, label %33

30:                                               ; preds = %18
  %31 = load ptr, ptr @stderr, align 8, !tbaa !21
  %32 = call i32 (ptr, ptr, ...) @fprintf(ptr noundef %31, ptr noundef @.str.1, ptr noundef @.str.2, i32 noundef 88) #7
  call void @exit(i32 noundef 0) #9
  unreachable

33:                                               ; preds = %18
  %34 = load i32, ptr %8, align 4, !tbaa !13
  %35 = icmp slt i32 %34, 0
  br i1 %35, label %36, label %60

36:                                               ; preds = %33
  %37 = getelementptr inbounds [1024 x i8], ptr %9, i64 0, i64 0
  %38 = call i64 @strlen(ptr noundef %37) #8
  %39 = sub i64 %38, 1
  %40 = getelementptr inbounds nuw [1024 x i8], ptr %9, i64 0, i64 %39
  %41 = load i8, ptr %40, align 1, !tbaa !17
  %42 = sext i8 %41 to i32
  %43 = icmp eq i32 %42, 34
  br i1 %43, label %44, label %49

44:                                               ; preds = %36
  %45 = getelementptr inbounds [1024 x i8], ptr %9, i64 0, i64 0
  %46 = call i64 @strlen(ptr noundef %45) #8
  %47 = sub i64 %46, 1
  %48 = getelementptr inbounds nuw [1024 x i8], ptr %9, i64 0, i64 %47
  store i8 0, ptr %48, align 1, !tbaa !17
  br label %49

49:                                               ; preds = %44, %36
  %50 = getelementptr inbounds [1024 x i8], ptr %9, i64 0, i64 0
  %51 = load i8, ptr %50, align 16, !tbaa !17
  %52 = sext i8 %51 to i32
  %53 = icmp eq i32 %52, 34
  br i1 %53, label %54, label %59

54:                                               ; preds = %49
  %55 = getelementptr inbounds [1024 x i8], ptr %9, i64 0, i64 0
  %56 = getelementptr inbounds [1024 x i8], ptr %9, i64 0, i64 0
  %57 = getelementptr inbounds i8, ptr %56, i64 1
  %58 = call ptr @strcpy(ptr noundef %55, ptr noundef %57) #7
  br label %59

59:                                               ; preds = %54, %49
  br label %97

60:                                               ; preds = %33
  %61 = load i32, ptr %8, align 4, !tbaa !13
  %62 = icmp sgt i32 %61, 0
  br i1 %62, label %63, label %96

63:                                               ; preds = %60
  %64 = load ptr, ptr %6, align 8, !tbaa !9
  %65 = getelementptr inbounds nuw %struct._CharList, ptr %64, i32 0, i32 0
  %66 = load ptr, ptr %65, align 8, !tbaa !15
  %67 = getelementptr inbounds i8, ptr %66, i64 0
  %68 = load i8, ptr %67, align 1, !tbaa !17
  %69 = sext i8 %68 to i32
  %70 = icmp ne i32 %69, 34
  br i1 %70, label %71, label %79

71:                                               ; preds = %63
  %72 = getelementptr inbounds [1024 x i8], ptr %9, i64 0, i64 0
  %73 = call ptr @strcpy(ptr noundef %72, ptr noundef @.str) #7
  %74 = getelementptr inbounds [1024 x i8], ptr %9, i64 0, i64 0
  %75 = load ptr, ptr %6, align 8, !tbaa !9
  %76 = getelementptr inbounds nuw %struct._CharList, ptr %75, i32 0, i32 0
  %77 = load ptr, ptr %76, align 8, !tbaa !15
  %78 = call ptr @strcat(ptr noundef %74, ptr noundef %77) #7
  br label %79

79:                                               ; preds = %71, %63
  %80 = load ptr, ptr %6, align 8, !tbaa !9
  %81 = getelementptr inbounds nuw %struct._CharList, ptr %80, i32 0, i32 0
  %82 = load ptr, ptr %81, align 8, !tbaa !15
  %83 = load ptr, ptr %6, align 8, !tbaa !9
  %84 = getelementptr inbounds nuw %struct._CharList, ptr %83, i32 0, i32 0
  %85 = load ptr, ptr %84, align 8, !tbaa !15
  %86 = call i64 @strlen(ptr noundef %85) #8
  %87 = sub i64 %86, 1
  %88 = getelementptr inbounds nuw i8, ptr %82, i64 %87
  %89 = load i8, ptr %88, align 1, !tbaa !17
  %90 = sext i8 %89 to i32
  %91 = icmp ne i32 %90, 34
  br i1 %91, label %92, label %95

92:                                               ; preds = %79
  %93 = getelementptr inbounds [1024 x i8], ptr %9, i64 0, i64 0
  %94 = call ptr @strcat(ptr noundef %93, ptr noundef @.str) #7
  br label %95

95:                                               ; preds = %92, %79
  br label %96

96:                                               ; preds = %95, %60
  br label %97

97:                                               ; preds = %96, %59
  %98 = load ptr, ptr %5, align 8, !tbaa !4
  %99 = getelementptr inbounds [1024 x i8], ptr %9, i64 0, i64 0
  %100 = getelementptr inbounds [1024 x i8], ptr %9, i64 0, i64 0
  %101 = call i64 @strlen(ptr noundef %100) #8
  %102 = trunc i64 %101 to i32
  %103 = call i32 @T_FileStream_write(ptr noundef %98, ptr noundef %99, i32 noundef %102)
  br label %104

104:                                              ; preds = %97, %13
  %105 = load ptr, ptr %6, align 8, !tbaa !9
  %106 = getelementptr inbounds nuw %struct._CharList, ptr %105, i32 0, i32 1
  %107 = load ptr, ptr %106, align 8, !tbaa !18
  %108 = icmp ne ptr %107, null
  br i1 %108, label %109, label %119

109:                                              ; preds = %104
  %110 = load ptr, ptr %7, align 8, !tbaa !11
  %111 = icmp ne ptr %110, null
  br i1 %111, label %112, label %119

112:                                              ; preds = %109
  %113 = load ptr, ptr %5, align 8, !tbaa !4
  %114 = load ptr, ptr %7, align 8, !tbaa !11
  %115 = load ptr, ptr %7, align 8, !tbaa !11
  %116 = call i64 @strlen(ptr noundef %115) #8
  %117 = trunc i64 %116 to i32
  %118 = call i32 @T_FileStream_write(ptr noundef %113, ptr noundef %114, i32 noundef %117)
  br label %119

119:                                              ; preds = %112, %109, %104
  %120 = load ptr, ptr %6, align 8, !tbaa !9
  %121 = getelementptr inbounds nuw %struct._CharList, ptr %120, i32 0, i32 1
  %122 = load ptr, ptr %121, align 8, !tbaa !18
  store ptr %122, ptr %6, align 8, !tbaa !9
  br label %10, !llvm.loop !23

123:                                              ; preds = %10
  call void @llvm.lifetime.end.p0(i64 1024, ptr %9) #7
  ret ptr null
}