; Function Attrs: nounwind uwtable
define dso_local noalias noundef ptr @pkg_writeCharList(ptr noundef %0, ptr noundef readonly %1, ptr noundef %2, i32 noundef %3) local_unnamed_addr #0 {
  %5 = alloca [1024 x i8], align 16
  call void @llvm.lifetime.start.p0(i64 1024, ptr nonnull %5) #11
  %.not24 = icmp eq ptr %1, null
  br i1 %.not24, label %._crit_edge, label %.lr.ph

.lr.ph:                                           ; preds = %4
  %6 = getelementptr inbounds nuw i8, ptr %5, i64 1023
  %7 = icmp slt i32 %3, 0
  %8 = getelementptr inbounds nuw i8, ptr %5, i64 1
  %9 = icmp ne ptr %2, null
  br i1 %7, label %.lr.ph.split.us, label %.lr.ph.split

.lr.ph.split.us:                                  ; preds = %.lr.ph, %40
  %.025.us = phi ptr [ %41, %40 ], [ %1, %.lr.ph ]
  %10 = load ptr, ptr %.025.us, align 8, !tbaa !4
  %.not20.us = icmp eq ptr %10, null
  br i1 %.not20.us, label %32, label %11

11:                                               ; preds = %.lr.ph.split.us
  %12 = call ptr @strncpy(ptr noundef nonnull dereferenceable(1) %5, ptr noundef nonnull dereferenceable(1) %10, i64 noundef 1023) #11
  store i8 0, ptr %6, align 1, !tbaa !11
  %13 = load ptr, ptr %.025.us, align 8, !tbaa !4
  %14 = call i64 @strlen(ptr noundef nonnull dereferenceable(1) %13) #12
  %15 = icmp ugt i64 %14, 1022
  br i1 %15, label %.split.us, label %16

16:                                               ; preds = %11
  %17 = call i64 @strlen(ptr noundef nonnull dereferenceable(1) %5) #12
  %18 = add i64 %17, -1
  %19 = getelementptr inbounds nuw [1024 x i8], ptr %5, i64 0, i64 %18
  %20 = load i8, ptr %19, align 1, !tbaa !11
  %21 = icmp eq i8 %20, 34
  br i1 %21, label %22, label %23

22:                                               ; preds = %16
  store i8 0, ptr %19, align 1, !tbaa !11
  br label %23

23:                                               ; preds = %22, %16
  %24 = load i8, ptr %5, align 16, !tbaa !11
  %25 = icmp eq i8 %24, 34
  br i1 %25, label %26, label %28

26:                                               ; preds = %23
  %27 = call ptr @strcpy(ptr noundef nonnull dereferenceable(1) %5, ptr noundef nonnull dereferenceable(1) %8) #11
  br label %28

28:                                               ; preds = %26, %23
  %29 = call i64 @strlen(ptr noundef nonnull dereferenceable(1) %5) #12
  %30 = trunc i64 %29 to i32
  %31 = call i32 @T_FileStream_write(ptr noundef %0, ptr noundef nonnull %5, i32 noundef %30) #11
  br label %32

32:                                               ; preds = %28, %.lr.ph.split.us
  %33 = getelementptr inbounds nuw i8, ptr %.025.us, i64 8
  %34 = load ptr, ptr %33, align 8, !tbaa !12
  %35 = icmp ne ptr %34, null
  %or.cond.us = and i1 %9, %35
  br i1 %or.cond.us, label %36, label %40

36:                                               ; preds = %32
  %37 = call i64 @strlen(ptr noundef nonnull dereferenceable(1) %2) #12
  %38 = trunc i64 %37 to i32
  %39 = call i32 @T_FileStream_write(ptr noundef %0, ptr noundef nonnull %2, i32 noundef %38) #11
  %.pre44 = load ptr, ptr %33, align 8, !tbaa !12
  br label %40

40:                                               ; preds = %36, %32
  %41 = phi ptr [ %.pre44, %36 ], [ %34, %32 ]
  %.not.us = icmp eq ptr %41, null
  br i1 %.not.us, label %._crit_edge, label %.lr.ph.split.us, !llvm.loop !15

.lr.ph.split:                                     ; preds = %.lr.ph
  %.not21 = icmp eq i32 %3, 0
  br i1 %.not21, label %.lr.ph.split.split.us, label %.lr.ph.split.split

.lr.ph.split.split.us:                            ; preds = %.lr.ph.split, %60
  %.025.us26 = phi ptr [ %61, %60 ], [ %1, %.lr.ph.split ]
  %42 = load ptr, ptr %.025.us26, align 8, !tbaa !4
  %.not20.us27 = icmp eq ptr %42, null
  br i1 %.not20.us27, label %52, label %43

43:                                               ; preds = %.lr.ph.split.split.us
  %44 = call ptr @strncpy(ptr noundef nonnull dereferenceable(1) %5, ptr noundef nonnull dereferenceable(1) %42, i64 noundef 1023) #11
  store i8 0, ptr %6, align 1, !tbaa !11
  %45 = load ptr, ptr %.025.us26, align 8, !tbaa !4
  %46 = call i64 @strlen(ptr noundef nonnull dereferenceable(1) %45) #12
  %47 = icmp ugt i64 %46, 1022
  br i1 %47, label %.split.us, label %48

48:                                               ; preds = %43
  %49 = call i64 @strlen(ptr noundef nonnull dereferenceable(1) %5) #12
  %50 = trunc i64 %49 to i32
  %51 = call i32 @T_FileStream_write(ptr noundef %0, ptr noundef nonnull %5, i32 noundef %50) #11
  br label %52

52:                                               ; preds = %48, %.lr.ph.split.split.us
  %53 = getelementptr inbounds nuw i8, ptr %.025.us26, i64 8
  %54 = load ptr, ptr %53, align 8, !tbaa !12
  %55 = icmp ne ptr %54, null
  %or.cond.us28 = and i1 %9, %55
  br i1 %or.cond.us28, label %56, label %60

56:                                               ; preds = %52
  %57 = call i64 @strlen(ptr noundef nonnull dereferenceable(1) %2) #12
  %58 = trunc i64 %57 to i32
  %59 = call i32 @T_FileStream_write(ptr noundef %0, ptr noundef nonnull %2, i32 noundef %58) #11
  %.pre43 = load ptr, ptr %53, align 8, !tbaa !12
  br label %60

60:                                               ; preds = %56, %52
  %61 = phi ptr [ %.pre43, %56 ], [ %54, %52 ]
  %.not.us29 = icmp eq ptr %61, null
  br i1 %.not.us29, label %._crit_edge, label %.lr.ph.split.split.us, !llvm.loop !15

.lr.ph.split.split:                               ; preds = %.lr.ph.split
  br i1 %9, label %.lr.ph.split.split.split, label %.lr.ph.split.split.split.us

.lr.ph.split.split.split.us:                      ; preds = %.lr.ph.split.split, %84
  %.025.us30 = phi ptr [ %86, %84 ], [ %1, %.lr.ph.split.split ]
  %62 = load ptr, ptr %.025.us30, align 8, !tbaa !4
  %.not20.us31 = icmp eq ptr %62, null
  br i1 %.not20.us31, label %84, label %63

63:                                               ; preds = %.lr.ph.split.split.split.us
  %64 = call ptr @strncpy(ptr noundef nonnull dereferenceable(1) %5, ptr noundef nonnull dereferenceable(1) %62, i64 noundef 1023) #11
  store i8 0, ptr %6, align 1, !tbaa !11
  %65 = load ptr, ptr %.025.us30, align 8, !tbaa !4
  %66 = call i64 @strlen(ptr noundef nonnull dereferenceable(1) %65) #12
  %67 = icmp ugt i64 %66, 1022
  br i1 %67, label %.split.us, label %68

68:                                               ; preds = %63
  %69 = load i8, ptr %65, align 1, !tbaa !11
  %.not22.us = icmp eq i8 %69, 34
  br i1 %.not22.us, label %73, label %70

70:                                               ; preds = %68
  store i16 34, ptr %5, align 16
  %71 = load ptr, ptr %.025.us30, align 8, !tbaa !4
  %72 = call ptr @strcat(ptr noundef nonnull dereferenceable(1) %5, ptr noundef nonnull dereferenceable(1) %71) #11
  %.pre = load ptr, ptr %.025.us30, align 8, !tbaa !4
  br label %73

73:                                               ; preds = %70, %68
  %74 = phi ptr [ %.pre, %70 ], [ %65, %68 ]
  %75 = call i64 @strlen(ptr noundef nonnull dereferenceable(1) %74) #12
  %76 = getelementptr i8, ptr %74, i64 %75
  %77 = getelementptr i8, ptr %76, i64 -1
  %78 = load i8, ptr %77, align 1, !tbaa !11
  %.not23.us = icmp eq i8 %78, 34
  br i1 %.not23.us, label %80, label %79

79:                                               ; preds = %73
  %strlen.us = call i64 @strlen(ptr nonnull dereferenceable(1) %5)
  %endptr.us = getelementptr inbounds i8, ptr %5, i64 %strlen.us
  store i16 34, ptr %endptr.us, align 1
  br label %80

80:                                               ; preds = %79, %73
  %81 = call i64 @strlen(ptr noundef nonnull dereferenceable(1) %5) #12
  %82 = trunc i64 %81 to i32
  %83 = call i32 @T_FileStream_write(ptr noundef %0, ptr noundef nonnull %5, i32 noundef %82) #11
  br label %84

84:                                               ; preds = %80, %.lr.ph.split.split.split.us
  %85 = getelementptr inbounds nuw i8, ptr %.025.us30, i64 8
  %86 = load ptr, ptr %85, align 8, !tbaa !12
  %.not.us33 = icmp eq ptr %86, null
  br i1 %.not.us33, label %._crit_edge, label %.lr.ph.split.split.split.us, !llvm.loop !15

.lr.ph.split.split.split:                         ; preds = %.lr.ph.split.split, %114
  %.025 = phi ptr [ %.pre42, %114 ], [ %1, %.lr.ph.split.split ]
  %87 = load ptr, ptr %.025, align 8, !tbaa !4
  %.not20 = icmp eq ptr %87, null
  br i1 %.not20, label %111, label %88

88:                                               ; preds = %.lr.ph.split.split.split
  %89 = call ptr @strncpy(ptr noundef nonnull dereferenceable(1) %5, ptr noundef nonnull dereferenceable(1) %87, i64 noundef 1023) #11
  store i8 0, ptr %6, align 1, !tbaa !11
  %90 = load ptr, ptr %.025, align 8, !tbaa !4
  %91 = call i64 @strlen(ptr noundef nonnull dereferenceable(1) %90) #12
  %92 = icmp ugt i64 %91, 1022
  br i1 %92, label %.split.us, label %95

.split.us:                                        ; preds = %63, %88, %43, %11
  %93 = load ptr, ptr @stderr, align 8, !tbaa !16
  %94 = call i32 (ptr, ptr, ...) @fprintf(ptr noundef %93, ptr noundef nonnull @.str.1, ptr noundef nonnull @.str.2, i32 noundef 88) #13
  call void @exit(i32 noundef 0) #14
  unreachable

95:                                               ; preds = %88
  %96 = load i8, ptr %90, align 1, !tbaa !11
  %.not22 = icmp eq i8 %96, 34
  br i1 %.not22, label %100, label %97

97:                                               ; preds = %95
  store i16 34, ptr %5, align 16
  %98 = load ptr, ptr %.025, align 8, !tbaa !4
  %99 = call ptr @strcat(ptr noundef nonnull dereferenceable(1) %5, ptr noundef nonnull dereferenceable(1) %98) #11
  %.pre41 = load ptr, ptr %.025, align 8, !tbaa !4
  br label %100

100:                                              ; preds = %97, %95
  %101 = phi ptr [ %.pre41, %97 ], [ %90, %95 ]
  %102 = call i64 @strlen(ptr noundef nonnull dereferenceable(1) %101) #12
  %103 = getelementptr i8, ptr %101, i64 %102
  %104 = getelementptr i8, ptr %103, i64 -1
  %105 = load i8, ptr %104, align 1, !tbaa !11
  %.not23 = icmp eq i8 %105, 34
  br i1 %.not23, label %107, label %106

106:                                              ; preds = %100
  %strlen = call i64 @strlen(ptr nonnull dereferenceable(1) %5)
  %endptr = getelementptr inbounds i8, ptr %5, i64 %strlen
  store i16 34, ptr %endptr, align 1
  br label %107

107:                                              ; preds = %106, %100
  %108 = call i64 @strlen(ptr noundef nonnull dereferenceable(1) %5) #12
  %109 = trunc i64 %108 to i32
  %110 = call i32 @T_FileStream_write(ptr noundef %0, ptr noundef nonnull %5, i32 noundef %109) #11
  br label %111

111:                                              ; preds = %107, %.lr.ph.split.split.split
  %112 = getelementptr inbounds nuw i8, ptr %.025, i64 8
  %113 = load ptr, ptr %112, align 8, !tbaa !12
  %.not34 = icmp eq ptr %113, null
  br i1 %.not34, label %._crit_edge, label %114

114:                                              ; preds = %111
  %115 = call i64 @strlen(ptr noundef nonnull dereferenceable(1) %2) #12
  %116 = trunc i64 %115 to i32
  %117 = call i32 @T_FileStream_write(ptr noundef %0, ptr noundef nonnull %2, i32 noundef %116) #11
  %.pre42 = load ptr, ptr %112, align 8, !tbaa !12
  %.not = icmp eq ptr %.pre42, null
  br i1 %.not, label %._crit_edge, label %.lr.ph.split.split.split, !llvm.loop !15

._crit_edge:                                      ; preds = %84, %111, %114, %60, %40, %4
  call void @llvm.lifetime.end.p0(i64 1024, ptr nonnull %5) #11
  ret ptr null
}